target datalayout = "e-m:e-p270:32:32-p271:32:32-p272:64:64-i64:64-i128:128-f80:128-n8:16:32:64-S128"
target triple = "x86_64-unknown-linux-gnu"

%struct.QEMUIOVector = type { ptr, i32, %union.anon }
%union.anon = type { %struct.anon }
%struct.anon = type { i32, %struct.iovec }
%struct.iovec = type { ptr, i64 }
%struct.IDEState = type { ptr, i8, i32, i32, i32, i32, i32, i32, i32, i64, i32, i32, [512 x i8], i32, [21 x i8], [41 x i8], i64, i8, i8, i32, i8, i8, i8, i8, i8, i8, i8, i8, i8, i8, i8, i8, i8, ptr, [9 x i8], %struct.unreported_events, i8, i8, i8, i8, i8, i32, i32, i32, i32, i32, i32, %struct.BlockAcctCookie, ptr, %struct.QEMUIOVector, %struct.anon.1, i64, i32, %struct.QEMUSGList, i32, ptr, ptr, ptr, ptr, i32, i32, i32, i8, ptr, i32, i8, i32, ptr, i32, i32, i8, i8, i32, i8, ptr, i32 }
%struct.unreported_events = type { i8, i8 }
%struct.BlockAcctCookie = type { i64, i64, i32 }
%struct.anon.1 = type { ptr }
%struct.QEMUSGList = type { ptr, i32, i32, i64, ptr, ptr }

; Function Attrs: nounwind sspstrong uwtable
define internal void @ide_dummy_transfer_stop(ptr noundef %s) #0 {
entry:
  %s.addr = alloca ptr, align 8
  store ptr %s, ptr %s.addr, align 8
  %0 = load ptr, ptr %s.addr, align 8
  %io_buffer = getelementptr inbounds %struct.IDEState, ptr %0, i32 0, i32 58
  %1 = load ptr, ptr %io_buffer, align 8
  %2 = load ptr, ptr %s.addr, align 8
  %data_ptr = getelementptr inbounds %struct.IDEState, ptr %2, i32 0, i32 56
  store ptr %1, ptr %data_ptr, align 8
  %3 = load ptr, ptr %s.addr, align 8
  %io_buffer1 = getelementptr inbounds %struct.IDEState, ptr %3, i32 0, i32 58
  %4 = load ptr, ptr %io_buffer1, align 8
  %5 = load ptr, ptr %s.addr, align 8
  %data_end = getelementptr inbounds %struct.IDEState, ptr %5, i32 0, i32 57
  store ptr %4, ptr %data_end, align 8
  %6 = load ptr, ptr %s.addr, align 8
  %io_buffer2 = getelementptr inbounds %struct.IDEState, ptr %6, i32 0, i32 58
  %7 = load ptr, ptr %io_buffer2, align 8
  %arrayidx = getelementptr i8, ptr %7, i64 0
  store i8 -1, ptr %arrayidx, align 1
  %8 = load ptr, ptr %s.addr, align 8
  %io_buffer3 = getelementptr inbounds %struct.IDEState, ptr %8, i32 0, i32 58
  %9 = load ptr, ptr %io_buffer3, align 8
  %arrayidx4 = getelementptr i8, ptr %9, i64 1
  store i8 -1, ptr %arrayidx4, align 1
  %10 = load ptr, ptr %s.addr, align 8
  %io_buffer5 = getelementptr inbounds %struct.IDEState, ptr %10, i32 0, i32 58
  %11 = load ptr, ptr %io_buffer5, align 8
  %arrayidx6 = getelementptr i8, ptr %11, i64 2
  store i8 -1, ptr %arrayidx6, align 1
  %12 = load ptr, ptr %s.addr, align 8
  %io_buffer7 = getelementptr inbounds %struct.IDEState, ptr %12, i32 0, i32 58
  %13 = load ptr, ptr %io_buffer7, align 8
  %arrayidx8 = getelementptr i8, ptr %13, i64 3
  store i8 -1, ptr %arrayidx8, align 1
  ret void
}