; Function Attrs: mustprogress nofree norecurse nosync nounwind sspstrong willreturn memory(write, argmem: readwrite, inaccessiblemem: none) uwtable
define internal void @ide_dummy_transfer_stop(ptr noundef captures(none) initializes((872, 888)) %s) #12 {
entry:
  %io_buffer = getelementptr inbounds nuw i8, ptr %s, i64 888
  %0 = load ptr, ptr %io_buffer, align 8
  %data_ptr = getelementptr inbounds nuw i8, ptr %s, i64 872
  store ptr %0, ptr %data_ptr, align 8
  %data_end = getelementptr inbounds nuw i8, ptr %s, i64 880
  store ptr %0, ptr %data_end, align 8
  store i8 -1, ptr %0, align 1
  %1 = load ptr, ptr %io_buffer, align 8
  %arrayidx4 = getelementptr i8, ptr %1, i64 1
  store i8 -1, ptr %arrayidx4, align 1
  %2 = load ptr, ptr %io_buffer, align 8
  %arrayidx6 = getelementptr i8, ptr %2, i64 2
  store i8 -1, ptr %arrayidx6, align 1
  %3 = load ptr, ptr %io_buffer, align 8
  %arrayidx8 = getelementptr i8, ptr %3, i64 3
  store i8 -1, ptr %arrayidx8, align 1
  ret void
}